target datalayout = "e-m:e-p270:32:32-p271:32:32-p272:64:64-i64:64-i128:128-f80:128-n8:16:32:64-S128"
target triple = "x86_64-pc-linux-gnu"

%struct.X509_info_st = type { ptr, ptr, ptr, %struct.evp_cipher_info_st, i32, ptr }
%struct.evp_cipher_info_st = type { ptr, [16 x i8] }

@.str = private unnamed_addr constant [2 x i8] c"r\00", align 1
@.str.1 = private unnamed_addr constant [31 x i8] c"../openssl/crypto/ts/ts_conf.c\00", align 1
@__func__.TS_CONF_load_certs = private unnamed_addr constant [19 x i8] c"TS_CONF_load_certs\00", align 1

; Function Attrs: inlinehint nounwind uwtable
define internal ptr @ossl_check_X509_INFO_freefunc_type(ptr noundef %0) #3 {
  %2 = alloca ptr, align 8
  store ptr %0, ptr %2, align 8, !tbaa !28
  %3 = load ptr, ptr %2, align 8, !tbaa !28
  ret ptr %3
}

; Function Attrs: inlinehint nounwind uwtable
define internal ptr @ossl_check_X509_INFO_sk_type(ptr noundef %0) #3 {
  %2 = alloca ptr, align 8
  store ptr %0, ptr %2, align 8, !tbaa !14
  %3 = load ptr, ptr %2, align 8, !tbaa !14
  ret ptr %3
}

; Function Attrs: inlinehint nounwind uwtable
define internal ptr @ossl_check_const_X509_INFO_sk_type(ptr noundef %0) #3 {
  %2 = alloca ptr, align 8
  store ptr %0, ptr %2, align 8, !tbaa !14
  %3 = load ptr, ptr %2, align 8, !tbaa !14
  ret ptr %3
}

; Function Attrs: nounwind uwtable
define ptr @TS_CONF_load_certs(ptr noundef %0) #0 {
  %2 = alloca ptr, align 8
  %3 = alloca ptr, align 8
  %4 = alloca ptr, align 8
  %5 = alloca ptr, align 8
  %6 = alloca ptr, align 8
  %7 = alloca i32, align 4
  %8 = alloca ptr, align 8
  %9 = alloca i32, align 4
  store ptr %0, ptr %3, align 8, !tbaa !3
  call void @llvm.lifetime.start.p0(i64 8, ptr %4) #7
  store ptr null, ptr %4, align 8, !tbaa !8
  call void @llvm.lifetime.start.p0(i64 8, ptr %5) #7
  store ptr null, ptr %5, align 8, !tbaa !12
  call void @llvm.lifetime.start.p0(i64 8, ptr %6) #7
  store ptr null, ptr %6, align 8, !tbaa !14
  call void @llvm.lifetime.start.p0(i64 4, ptr %7) #7
  %10 = load ptr, ptr %3, align 8, !tbaa !3
  %11 = call ptr @BIO_new_file(ptr noundef %10, ptr noundef @.str)
  store ptr %11, ptr %4, align 8, !tbaa !8
  %12 = icmp eq ptr %11, null
  br i1 %12, label %13, label %14

13:                                               ; preds = %1
  br label %56

14:                                               ; preds = %1
  %15 = call ptr @OPENSSL_sk_new_null()
  store ptr %15, ptr %5, align 8, !tbaa !12
  %16 = icmp eq ptr %15, null
  br i1 %16, label %17, label %18

17:                                               ; preds = %14
  br label %56

18:                                               ; preds = %14
  %19 = load ptr, ptr %4, align 8, !tbaa !8
  %20 = call ptr @PEM_X509_INFO_read_bio(ptr noundef %19, ptr noundef null, ptr noundef null, ptr noundef null)
  store ptr %20, ptr %6, align 8, !tbaa !14
  store i32 0, ptr %7, align 4, !tbaa !16
  br label %21

21:                                               ; preds = %52, %18
  %22 = load i32, ptr %7, align 4, !tbaa !16
  %23 = load ptr, ptr %6, align 8, !tbaa !14
  %24 = call ptr @ossl_check_const_X509_INFO_sk_type(ptr noundef %23)
  %25 = call i32 @OPENSSL_sk_num(ptr noundef %24)
  %26 = icmp slt i32 %22, %25
  br i1 %26, label %27, label %55

27:                                               ; preds = %21
  call void @llvm.lifetime.start.p0(i64 8, ptr %8) #7
  %28 = load ptr, ptr %6, align 8, !tbaa !14
  %29 = call ptr @ossl_check_const_X509_INFO_sk_type(ptr noundef %28)
  %30 = load i32, ptr %7, align 4, !tbaa !16
  %31 = call ptr @OPENSSL_sk_value(ptr noundef %29, i32 noundef %30)
  store ptr %31, ptr %8, align 8, !tbaa !18
  %32 = load ptr, ptr %8, align 8, !tbaa !18
  %33 = getelementptr inbounds nuw %struct.X509_info_st, ptr %32, i32 0, i32 0
  %34 = load ptr, ptr %33, align 8, !tbaa !20
  %35 = icmp ne ptr %34, null
  br i1 %35, label %36, label %48

36:                                               ; preds = %27
  %37 = load ptr, ptr %5, align 8, !tbaa !12
  %38 = load ptr, ptr %8, align 8, !tbaa !18
  %39 = getelementptr inbounds nuw %struct.X509_info_st, ptr %38, i32 0, i32 0
  %40 = load ptr, ptr %39, align 8, !tbaa !20
  %41 = call i32 @X509_add_cert(ptr noundef %37, ptr noundef %40, i32 noundef 0)
  %42 = icmp ne i32 %41, 0
  br i1 %42, label %45, label %43

43:                                               ; preds = %36
  %44 = load ptr, ptr %5, align 8, !tbaa !12
  call void @OSSL_STACK_OF_X509_free(ptr noundef %44)
  store ptr null, ptr %5, align 8, !tbaa !12
  store i32 2, ptr %9, align 4
  br label %49

45:                                               ; preds = %36
  %46 = load ptr, ptr %8, align 8, !tbaa !18
  %47 = getelementptr inbounds nuw %struct.X509_info_st, ptr %46, i32 0, i32 0
  store ptr null, ptr %47, align 8, !tbaa !20
  br label %48

48:                                               ; preds = %45, %27
  store i32 0, ptr %9, align 4
  br label %49

49:                                               ; preds = %43, %48
  call void @llvm.lifetime.end.p0(i64 8, ptr %8) #7
  %50 = load i32, ptr %9, align 4
  switch i32 %50, label %67 [
    i32 0, label %51
    i32 2, label %56
  ]

51:                                               ; preds = %49
  br label %52

52:                                               ; preds = %51
  %53 = load i32, ptr %7, align 4, !tbaa !16
  %54 = add nsw i32 %53, 1
  store i32 %54, ptr %7, align 4, !tbaa !16
  br label %21, !llvm.loop !26

55:                                               ; preds = %21
  br label %56

56:                                               ; preds = %55, %49, %17, %13
  %57 = load ptr, ptr %5, align 8, !tbaa !12
  %58 = icmp eq ptr %57, null
  br i1 %58, label %59, label %60

59:                                               ; preds = %56
  call void @ERR_new()
  call void @ERR_set_debug(ptr noundef @.str.1, i32 noundef 98, ptr noundef @__func__.TS_CONF_load_certs)
  call void (i32, i32, ptr, ...) @ERR_set_error(i32 noundef 47, i32 noundef 137, ptr noundef null)
  br label %60

60:                                               ; preds = %59, %56
  %61 = load ptr, ptr %6, align 8, !tbaa !14
  %62 = call ptr @ossl_check_X509_INFO_sk_type(ptr noundef %61)
  %63 = call ptr @ossl_check_X509_INFO_freefunc_type(ptr noundef @X509_INFO_free)
  call void @OPENSSL_sk_pop_free(ptr noundef %62, ptr noundef %63)
  %64 = load ptr, ptr %4, align 8, !tbaa !8
  %65 = call i32 @BIO_free(ptr noundef %64)
  %66 = load ptr, ptr %5, align 8, !tbaa !12
  store ptr %66, ptr %2, align 8
  store i32 1, ptr %9, align 4
  br label %67

67:                                               ; preds = %60, %49
  call void @llvm.lifetime.end.p0(i64 4, ptr %7) #7
  call void @llvm.lifetime.end.p0(i64 8, ptr %6) #7
  call void @llvm.lifetime.end.p0(i64 8, ptr %5) #7
  call void @llvm.lifetime.end.p0(i64 8, ptr %4) #7
  %68 = load ptr, ptr %2, align 8
  ret ptr %68
}