; Function Attrs: nounwind uwtable
define ptr @TS_CONF_load_certs(ptr noundef %0) local_unnamed_addr #0 {
  %2 = tail call ptr @BIO_new_file(ptr noundef %0, ptr noundef nonnull @.str) #4
  %3 = icmp eq ptr %2, null
  br i1 %3, label %21, label %4

4:                                                ; preds = %1
  %5 = tail call ptr @OPENSSL_sk_new_null() #4
  %6 = icmp eq ptr %5, null
  br i1 %6, label %21, label %7

7:                                                ; preds = %4
  %8 = tail call ptr @PEM_X509_INFO_read_bio(ptr noundef nonnull %2, ptr noundef null, ptr noundef null, ptr noundef null) #4
  %9 = tail call i32 @OPENSSL_sk_num(ptr noundef %8) #4
  %10 = icmp sgt i32 %9, 0
  br i1 %10, label %.lr.ph, label %.loopexit

.lr.ph:                                           ; preds = %7, %17
  %.01839 = phi i32 [ %18, %17 ], [ 0, %7 ]
  %11 = tail call ptr @OPENSSL_sk_value(ptr noundef %8, i32 noundef %.01839) #4
  %12 = load ptr, ptr %11, align 8, !tbaa !3
  %.not = icmp eq ptr %12, null
  br i1 %.not, label %17, label %13

13:                                               ; preds = %.lr.ph
  %14 = tail call i32 @X509_add_cert(ptr noundef nonnull %5, ptr noundef nonnull %12, i32 noundef 0) #4
  %.not25 = icmp eq i32 %14, 0
  br i1 %.not25, label %16, label %15

15:                                               ; preds = %13
  store ptr null, ptr %11, align 8, !tbaa !3
  br label %17

16:                                               ; preds = %13
  tail call void @OSSL_STACK_OF_X509_free(ptr noundef nonnull %5) #4
  br label %21

17:                                               ; preds = %15, %.lr.ph
  %18 = add nuw nsw i32 %.01839, 1
  %19 = tail call i32 @OPENSSL_sk_num(ptr noundef %8) #4
  %20 = icmp slt i32 %18, %19
  br i1 %20, label %.lr.ph, label %.loopexit, !llvm.loop !15

21:                                               ; preds = %1, %4, %16
  %.019.ph = phi ptr [ %8, %16 ], [ null, %4 ], [ null, %1 ]
  tail call void @ERR_new() #4
  tail call void @ERR_set_debug(ptr noundef nonnull @.str.1, i32 noundef 98, ptr noundef nonnull @__func__.TS_CONF_load_certs) #4
  tail call void (i32, i32, ptr, ...) @ERR_set_error(i32 noundef 47, i32 noundef 137, ptr noundef null) #4
  br label %.loopexit

.loopexit:                                        ; preds = %17, %7, %21
  %.01937 = phi ptr [ %.019.ph, %21 ], [ %8, %7 ], [ %8, %17 ]
  %.02035 = phi ptr [ null, %21 ], [ %5, %7 ], [ %5, %17 ]
  tail call void @OPENSSL_sk_pop_free(ptr noundef %.01937, ptr noundef nonnull @X509_INFO_free) #4
  %22 = tail call i32 @BIO_free(ptr noundef %2) #4
  ret ptr %.02035
}